(lp0
(lp1
(lp2
F0.08823529411764706
aF0.9117647058823529
aa(lp3
F0.0
aF0.058823529411764705
aF0.058823529411764705
aF0.058823529411764705
aF0.058823529411764705
aF0.0
aF0.058823529411764705
aF0.0
aF0.0
aF0.08823529411764706
aF0.058823529411764705
aF0.029411764705882353
aF0.11764705882352941
aF0.058823529411764705
aF0.0
aF0.058823529411764705
aF0.0
aF0.058823529411764705
aF0.0
aF0.029411764705882353
aF0.029411764705882353
aF0.08823529411764706
aF0.08823529411764706
aF0.0
aF0.0
aa(lp4
F0.17647058823529413
aF0.17647058823529413
aF0.2647058823529412
aF0.0
aF0.029411764705882353
aF0.0
aF0.058823529411764705
aF0.029411764705882353
aF0.029411764705882353
aF0.029411764705882353
aF0.058823529411764705
aF0.0
aF0.0
aF0.0
aF0.058823529411764705
aF0.058823529411764705
aF0.0
aF0.0
aF0.0
aF0.029411764705882353
aF0.0
aF0.0
aF0.0
aF0.0
aF0.0
aF0.0
aa(lp5
F0.029411764705882353
aF0.9705882352941176
aa(lp6
F0.029411764705882353
aF0.20588235294117646
aF0.2647058823529412
aF0.35294117647058826
aF0.058823529411764705
aF0.08823529411764706
aF0.0
aaa(lp7
(lp8
F0.3888888888888889
aF0.6111111111111112
aa(lp9
F0.0
aF0.0
aF0.0
aF0.0
aF0.027777777777777776
aF0.05555555555555555
aF0.05555555555555555
aF0.027777777777777776
aF0.1388888888888889
aF0.08333333333333333
aF0.0
aF0.0
aF0.08333333333333333
aF0.027777777777777776
aF0.05555555555555555
aF0.027777777777777776
aF0.05555555555555555
aF0.08333333333333333
aF0.0
aF0.027777777777777776
aF0.0
aF0.08333333333333333
aF0.16666666666666666
aF0.0
aF0.0
aa(lp10
F0.027777777777777776
aF0.08333333333333333
aF0.4166666666666667
aF0.0
aF0.08333333333333333
aF0.027777777777777776
aF0.0
aF0.0
aF0.0
aF0.0
aF0.05555555555555555
aF0.0
aF0.0
aF0.0
aF0.027777777777777776
aF0.0
aF0.1111111111111111
aF0.0
aF0.027777777777777776
aF0.0
aF0.05555555555555555
aF0.05555555555555555
aF0.0
aF0.0
aF0.027777777777777776
aF0.0
aa(lp11
F0.25
aF0.75
aa(lp12
F0.08333333333333333
aF0.25
aF0.25
aF0.2222222222222222
aF0.08333333333333333
aF0.1111111111111111
aF0.0
aaa.